target datalayout = "e-m:e-p270:32:32-p271:32:32-p272:64:64-i64:64-i128:128-f80:128-n8:16:32:64-S128"
target triple = "x86_64-pc-linux-gnu"

%struct.TValue = type { %union.Value, i8 }
%union.Value = type { ptr }

@.str.36 = private unnamed_addr constant [29 x i8] c"perform bitwise operation on\00", align 1
@.str.37 = private unnamed_addr constant [22 x i8] c"perform arithmetic on\00", align 1

; Function Attrs: nounwind uwtable
define hidden void @luaT_trybinTM(ptr noundef %0, ptr noundef %1, ptr noundef %2, ptr noundef %3, i32 noundef %4) #0 {
  %6 = alloca ptr, align 8
  %7 = alloca ptr, align 8
  %8 = alloca ptr, align 8
  %9 = alloca ptr, align 8
  %10 = alloca i32, align 4
  store ptr %0, ptr %6, align 8, !tbaa !4
  store ptr %1, ptr %7, align 8, !tbaa !28
  store ptr %2, ptr %8, align 8, !tbaa !28
  store ptr %3, ptr %9, align 8, !tbaa !43
  store i32 %4, ptr %10, align 4, !tbaa !9
  %11 = load ptr, ptr %6, align 8, !tbaa !4
  %12 = load ptr, ptr %7, align 8, !tbaa !28
  %13 = load ptr, ptr %8, align 8, !tbaa !28
  %14 = load ptr, ptr %9, align 8, !tbaa !43
  %15 = load i32, ptr %10, align 4, !tbaa !9
  %16 = call i32 @callbinTM(ptr noundef %11, ptr noundef %12, ptr noundef %13, ptr noundef %14, i32 noundef %15)
  %17 = icmp slt i32 %16, 0
  %18 = zext i1 %17 to i32
  %19 = icmp ne i32 %18, 0
  %20 = zext i1 %19 to i32
  %21 = sext i32 %20 to i64
  %22 = call i64 @llvm.expect.i64(i64 %21, i64 0)
  %23 = icmp ne i64 %22, 0
  br i1 %23, label %24, label %52

24:                                               ; preds = %5
  %25 = load i32, ptr %10, align 4, !tbaa !9
  switch i32 %25, label %48 [
    i32 13, label %26
    i32 14, label %26
    i32 15, label %26
    i32 16, label %26
    i32 17, label %26
    i32 19, label %26
  ]

26:                                               ; preds = %24, %24, %24, %24, %24, %24
  %27 = load ptr, ptr %7, align 8, !tbaa !28
  %28 = getelementptr inbounds nuw %struct.TValue, ptr %27, i32 0, i32 1
  %29 = load i8, ptr %28, align 8, !tbaa !30
  %30 = zext i8 %29 to i32
  %31 = and i32 %30, 15
  %32 = icmp eq i32 %31, 3
  br i1 %32, label %33, label %44

33:                                               ; preds = %26
  %34 = load ptr, ptr %8, align 8, !tbaa !28
  %35 = getelementptr inbounds nuw %struct.TValue, ptr %34, i32 0, i32 1
  %36 = load i8, ptr %35, align 8, !tbaa !30
  %37 = zext i8 %36 to i32
  %38 = and i32 %37, 15
  %39 = icmp eq i32 %38, 3
  br i1 %39, label %40, label %44

40:                                               ; preds = %33
  %41 = load ptr, ptr %6, align 8, !tbaa !4
  %42 = load ptr, ptr %7, align 8, !tbaa !28
  %43 = load ptr, ptr %8, align 8, !tbaa !28
  call void @luaG_tointerror(ptr noundef %41, ptr noundef %42, ptr noundef %43) #7
  unreachable

44:                                               ; preds = %33, %26
  %45 = load ptr, ptr %6, align 8, !tbaa !4
  %46 = load ptr, ptr %7, align 8, !tbaa !28
  %47 = load ptr, ptr %8, align 8, !tbaa !28
  call void @luaG_opinterror(ptr noundef %45, ptr noundef %46, ptr noundef %47, ptr noundef @.str.36) #7
  unreachable

48:                                               ; preds = %24
  %49 = load ptr, ptr %6, align 8, !tbaa !4
  %50 = load ptr, ptr %7, align 8, !tbaa !28
  %51 = load ptr, ptr %8, align 8, !tbaa !28
  call void @luaG_opinterror(ptr noundef %49, ptr noundef %50, ptr noundef %51, ptr noundef @.str.37) #7
  unreachable

52:                                               ; preds = %5
  ret void
}

; Function Attrs: nounwind uwtable
define hidden void @luaT_trybinassocTM(ptr noundef %0, ptr noundef %1, ptr noundef %2, i32 noundef %3, ptr noundef %4, i32 noundef %5) #0 {
  %7 = alloca ptr, align 8
  %8 = alloca ptr, align 8
  %9 = alloca ptr, align 8
  %10 = alloca i32, align 4
  %11 = alloca ptr, align 8
  %12 = alloca i32, align 4
  store ptr %0, ptr %7, align 8, !tbaa !4
  store ptr %1, ptr %8, align 8, !tbaa !28
  store ptr %2, ptr %9, align 8, !tbaa !28
  store i32 %3, ptr %10, align 4, !tbaa !9
  store ptr %4, ptr %11, align 8, !tbaa !43
  store i32 %5, ptr %12, align 4, !tbaa !9
  %13 = load i32, ptr %10, align 4, !tbaa !9
  %14 = icmp ne i32 %13, 0
  br i1 %14, label %15, label %21

15:                                               ; preds = %6
  %16 = load ptr, ptr %7, align 8, !tbaa !4
  %17 = load ptr, ptr %9, align 8, !tbaa !28
  %18 = load ptr, ptr %8, align 8, !tbaa !28
  %19 = load ptr, ptr %11, align 8, !tbaa !43
  %20 = load i32, ptr %12, align 4, !tbaa !9
  call void @luaT_trybinTM(ptr noundef %16, ptr noundef %17, ptr noundef %18, ptr noundef %19, i32 noundef %20)
  br label %27

21:                                               ; preds = %6
  %22 = load ptr, ptr %7, align 8, !tbaa !4
  %23 = load ptr, ptr %8, align 8, !tbaa !28
  %24 = load ptr, ptr %9, align 8, !tbaa !28
  %25 = load ptr, ptr %11, align 8, !tbaa !43
  %26 = load i32, ptr %12, align 4, !tbaa !9
  call void @luaT_trybinTM(ptr noundef %22, ptr noundef %23, ptr noundef %24, ptr noundef %25, i32 noundef %26)
  br label %27

27:                                               ; preds = %21, %15
  ret void
}