; Function Attrs: nounwind uwtable
define hidden void @luaT_trybinassocTM(ptr noundef %0, ptr noundef %1, ptr noundef %2, i32 noundef %3, ptr noundef %4, i32 noundef %5) local_unnamed_addr #0 {
  %.not = icmp eq i32 %3, 0
  br i1 %.not, label %24, label %7

7:                                                ; preds = %6
  %8 = tail call fastcc i32 @callbinTM(ptr noundef %0, ptr noundef %2, ptr noundef %1, ptr noundef %4, i32 noundef %5)
  %9 = icmp slt i32 %8, 0
  br i1 %9, label %10, label %luaT_trybinTM.exit, !prof !41

10:                                               ; preds = %7
  switch i32 %5, label %23 [
    i32 13, label %11
    i32 14, label %11
    i32 15, label %11
    i32 16, label %11
    i32 17, label %11
    i32 19, label %11
  ]

11:                                               ; preds = %10, %10, %10, %10, %10, %10
  %12 = getelementptr inbounds nuw i8, ptr %2, i64 8
  %13 = load i8, ptr %12, align 8, !tbaa !24
  %14 = and i8 %13, 15
  %15 = icmp eq i8 %14, 3
  br i1 %15, label %16, label %22

16:                                               ; preds = %11
  %17 = getelementptr inbounds nuw i8, ptr %1, i64 8
  %18 = load i8, ptr %17, align 8, !tbaa !24
  %19 = and i8 %18, 15
  %20 = icmp eq i8 %19, 3
  br i1 %20, label %21, label %22

21:                                               ; preds = %16
  tail call void @luaG_tointerror(ptr noundef %0, ptr noundef nonnull %2, ptr noundef nonnull %1) #6
  unreachable

22:                                               ; preds = %16, %11
  tail call void @luaG_opinterror(ptr noundef %0, ptr noundef nonnull %2, ptr noundef %1, ptr noundef nonnull @.str.36) #6
  unreachable

23:                                               ; preds = %10
  tail call void @luaG_opinterror(ptr noundef %0, ptr noundef %2, ptr noundef %1, ptr noundef nonnull @.str.37) #6
  unreachable

24:                                               ; preds = %6
  %25 = tail call fastcc i32 @callbinTM(ptr noundef %0, ptr noundef %1, ptr noundef %2, ptr noundef %4, i32 noundef %5)
  %26 = icmp slt i32 %25, 0
  br i1 %26, label %27, label %luaT_trybinTM.exit, !prof !41

27:                                               ; preds = %24
  switch i32 %5, label %40 [
    i32 13, label %28
    i32 14, label %28
    i32 15, label %28
    i32 16, label %28
    i32 17, label %28
    i32 19, label %28
  ]

28:                                               ; preds = %27, %27, %27, %27, %27, %27
  %29 = getelementptr inbounds nuw i8, ptr %1, i64 8
  %30 = load i8, ptr %29, align 8, !tbaa !24
  %31 = and i8 %30, 15
  %32 = icmp eq i8 %31, 3
  br i1 %32, label %33, label %39

33:                                               ; preds = %28
  %34 = getelementptr inbounds nuw i8, ptr %2, i64 8
  %35 = load i8, ptr %34, align 8, !tbaa !24
  %36 = and i8 %35, 15
  %37 = icmp eq i8 %36, 3
  br i1 %37, label %38, label %39

38:                                               ; preds = %33
  tail call void @luaG_tointerror(ptr noundef %0, ptr noundef nonnull %1, ptr noundef nonnull %2) #6
  unreachable

39:                                               ; preds = %33, %28
  tail call void @luaG_opinterror(ptr noundef %0, ptr noundef nonnull %1, ptr noundef %2, ptr noundef nonnull @.str.36) #6
  unreachable

40:                                               ; preds = %27
  tail call void @luaG_opinterror(ptr noundef %0, ptr noundef %1, ptr noundef %2, ptr noundef nonnull @.str.37) #6
  unreachable

luaT_trybinTM.exit:                               ; preds = %24, %7
  ret void
}